target datalayout = "e-m:e-p270:32:32-p271:32:32-p272:64:64-i64:64-i128:128-f80:128-n8:16:32:64-S128"
target triple = "x86_64-unknown-linux-gnu"

%"class.absl::container_internal::CommonFields" = type { ptr, ptr, i64, i64 }
%"class.absl::container_internal::HashSetResizeHelper" = type <{ ptr, i64, i8, [7 x i8] }>

; Function Attrs: mustprogress nounwind uwtable
define linkonce_odr dso_local void @_ZN4absl18container_internal27SanitizerPoisonMemoryRegionEPKvm(ptr noundef %m, i64 noundef %s) #1 comdat {
entry:
  %m.addr = alloca ptr, align 8
  %s.addr = alloca i64, align 8
  store ptr %m, ptr %m.addr, align 8
  store i64 %s, ptr %s.addr, align 8
  ret void
}

; Function Attrs: mustprogress nounwind uwtable
define linkonce_odr dso_local noundef zeroext i1 @_ZN4absl18container_internal6IsFullENS0_6ctrl_tE(i8 noundef signext %c) #1 comdat {
entry:
  %c.addr = alloca i8, align 1
  store i8 %c, ptr %c.addr, align 1
  %0 = load i8, ptr %c.addr, align 1
  %cmp = icmp sge i8 %0, 0
  ret i1 %cmp
}

; Function Attrs: mustprogress nounwind uwtable
define linkonce_odr dso_local noundef ptr @_ZN4absl18container_internal11SlotAddressEPvmm(ptr noundef %slot_array, i64 noundef %slot, i64 noundef %slot_size) #1 comdat {
entry:
  %slot_array.addr = alloca ptr, align 8
  %slot.addr = alloca i64, align 8
  %slot_size.addr = alloca i64, align 8
  store ptr %slot_array, ptr %slot_array.addr, align 8
  store i64 %slot, ptr %slot.addr, align 8
  store i64 %slot_size, ptr %slot_size.addr, align 8
  %0 = load ptr, ptr %slot_array.addr, align 8
  %1 = load i64, ptr %slot.addr, align 8
  %2 = load i64, ptr %slot_size.addr, align 8
  %mul = mul i64 %1, %2
  %add.ptr = getelementptr inbounds i8, ptr %0, i64 %mul
  ret ptr %add.ptr
}

; Function Attrs: mustprogress nounwind uwtable
define linkonce_odr dso_local void @_ZN4absl18container_internal29SanitizerUnpoisonMemoryRegionEPKvm(ptr noundef %m, i64 noundef %s) #1 comdat {
entry:
  %m.addr = alloca ptr, align 8
  %s.addr = alloca i64, align 8
  store ptr %m, ptr %m.addr, align 8
  store i64 %s, ptr %s.addr, align 8
  ret void
}

; Function Attrs: mustprogress nounwind uwtable
define linkonce_odr dso_local void @_ZNK4absl18container_internal19HashSetResizeHelper27PoisonSingleGroupEmptySlotsERNS0_12CommonFieldsEm(ptr noundef nonnull align 8 dereferenceable(17) %this, ptr noundef nonnull align 8 dereferenceable(32) %c, i64 noundef %slot_size) #1 comdat align 2 {
entry:
  %this.addr = alloca ptr, align 8
  %c.addr = alloca ptr, align 8
  %slot_size.addr = alloca i64, align 8
  %i = alloca i64, align 8
  store ptr %this, ptr %this.addr, align 8
  store ptr %c, ptr %c.addr, align 8
  store i64 %slot_size, ptr %slot_size.addr, align 8
  store i64 0, ptr %i, align 8
  br label %for.cond

for.cond:                                         ; preds = %for.inc, %entry
  %0 = load i64, ptr %i, align 8
  %1 = load ptr, ptr %c.addr, align 8
  %call = call noundef i64 @_ZNK4absl18container_internal12CommonFields8capacityEv(ptr noundef nonnull align 8 dereferenceable(32) %1)
  %cmp = icmp ult i64 %0, %call
  br i1 %cmp, label %for.body, label %for.end

for.body:                                         ; preds = %for.cond
  %2 = load ptr, ptr %c.addr, align 8
  %call2 = call noundef ptr @_ZNK4absl18container_internal12CommonFields7controlEv(ptr noundef nonnull align 8 dereferenceable(32) %2)
  %3 = load i64, ptr %i, align 8
  %arrayidx = getelementptr inbounds i8, ptr %call2, i64 %3
  %4 = load i8, ptr %arrayidx, align 1
  %call3 = call noundef zeroext i1 @_ZN4absl18container_internal6IsFullENS0_6ctrl_tE(i8 noundef signext %4)
  br i1 %call3, label %if.end, label %if.then

if.then:                                          ; preds = %for.body
  %5 = load ptr, ptr %c.addr, align 8
  %call4 = call noundef ptr @_ZNK4absl18container_internal12CommonFields10slot_arrayEv(ptr noundef nonnull align 8 dereferenceable(32) %5)
  %6 = load i64, ptr %i, align 8
  %7 = load i64, ptr %slot_size.addr, align 8
  %call5 = call noundef ptr @_ZN4absl18container_internal11SlotAddressEPvmm(ptr noundef %call4, i64 noundef %6, i64 noundef %7)
  %8 = load i64, ptr %slot_size.addr, align 8
  call void @_ZN4absl18container_internal27SanitizerPoisonMemoryRegionEPKvm(ptr noundef %call5, i64 noundef %8)
  br label %if.end

if.end:                                           ; preds = %if.then, %for.body
  br label %for.inc

for.inc:                                          ; preds = %if.end
  %9 = load i64, ptr %i, align 8
  %inc = add i64 %9, 1
  store i64 %inc, ptr %i, align 8
  br label %for.cond, !llvm.loop !9

for.end:                                          ; preds = %for.cond
  ret void
}

; Function Attrs: mustprogress uwtable
define dso_local void @_ZNK4absl18container_internal19HashSetResizeHelper43GrowIntoSingleGroupShuffleTransferableSlotsEPvS2_m(ptr noundef nonnull align 8 dereferenceable(17) %this, ptr noundef %old_slots, ptr noundef %new_slots, i64 noundef %slot_size) #0 align 2 {
entry:
  %this.addr = alloca ptr, align 8
  %old_slots.addr = alloca ptr, align 8
  %new_slots.addr = alloca ptr, align 8
  %slot_size.addr = alloca i64, align 8
  %half_old_capacity = alloca i64, align 8
  store ptr %this, ptr %this.addr, align 8
  store ptr %old_slots, ptr %old_slots.addr, align 8
  store ptr %new_slots, ptr %new_slots.addr, align 8
  store i64 %slot_size, ptr %slot_size.addr, align 8
  %this1 = load ptr, ptr %this.addr, align 8
  %old_capacity_ = getelementptr inbounds %"class.absl::container_internal::HashSetResizeHelper", ptr %this1, i32 0, i32 1
  %0 = load i64, ptr %old_capacity_, align 8
  %div = udiv i64 %0, 2
  store i64 %div, ptr %half_old_capacity, align 8
  %1 = load ptr, ptr %old_slots.addr, align 8
  %2 = load i64, ptr %slot_size.addr, align 8
  %old_capacity_2 = getelementptr inbounds %"class.absl::container_internal::HashSetResizeHelper", ptr %this1, i32 0, i32 1
  %3 = load i64, ptr %old_capacity_2, align 8
  %mul = mul i64 %2, %3
  call void @_ZN4absl18container_internal29SanitizerUnpoisonMemoryRegionEPKvm(ptr noundef %1, i64 noundef %mul)
  %4 = load ptr, ptr %new_slots.addr, align 8
  %5 = load ptr, ptr %old_slots.addr, align 8
  %6 = load i64, ptr %half_old_capacity, align 8
  %add = add i64 %6, 1
  %7 = load i64, ptr %slot_size.addr, align 8
  %call = call noundef ptr @_ZN4absl18container_internal11SlotAddressEPvmm(ptr noundef %5, i64 noundef %add, i64 noundef %7)
  %8 = load i64, ptr %slot_size.addr, align 8
  %9 = load i64, ptr %half_old_capacity, align 8
  %mul3 = mul i64 %8, %9
  call void @llvm.memcpy.p0.p0.i64(ptr align 1 %4, ptr align 1 %call, i64 %mul3, i1 false)
  %10 = load ptr, ptr %new_slots.addr, align 8
  %11 = load i64, ptr %half_old_capacity, align 8
  %add4 = add i64 %11, 1
  %12 = load i64, ptr %slot_size.addr, align 8
  %call5 = call noundef ptr @_ZN4absl18container_internal11SlotAddressEPvmm(ptr noundef %10, i64 noundef %add4, i64 noundef %12)
  %13 = load ptr, ptr %old_slots.addr, align 8
  %14 = load i64, ptr %slot_size.addr, align 8
  %15 = load i64, ptr %half_old_capacity, align 8
  %add6 = add i64 %15, 1
  %mul7 = mul i64 %14, %add6
  call void @llvm.memcpy.p0.p0.i64(ptr align 1 %call5, ptr align 1 %13, i64 %mul7, i1 false)
  ret void
}

; Function Attrs: mustprogress nounwind uwtable
define linkonce_odr dso_local noundef ptr @_ZNK4absl18container_internal12CommonFields10slot_arrayEv(ptr noundef nonnull align 8 dereferenceable(32) %this) #1 comdat align 2 {
entry:
  %this.addr = alloca ptr, align 8
  store ptr %this, ptr %this.addr, align 8
  %this1 = load ptr, ptr %this.addr, align 8
  %slots_ = getelementptr inbounds %"class.absl::container_internal::CommonFields", ptr %this1, i32 0, i32 1
  %0 = load ptr, ptr %slots_, align 8
  ret ptr %0
}

; Function Attrs: mustprogress nounwind uwtable
define dso_local void @_ZNK4absl18container_internal19HashSetResizeHelper38GrowIntoSingleGroupShuffleControlBytesEPNS0_6ctrl_tEm(ptr noundef nonnull align 8 dereferenceable(17) %this, ptr noundef %new_ctrl, i64 noundef %new_capacity) #1 align 2 {
entry:
  %this.addr = alloca ptr, align 8
  %new_ctrl.addr = alloca ptr, align 8
  %new_capacity.addr = alloca i64, align 8
  %kHalfWidth = alloca i64, align 8
  %half_old_capacity = alloca i64, align 8
  %g = alloca [8 x i8], align 1
  store ptr %this, ptr %this.addr, align 8
  store ptr %new_ctrl, ptr %new_ctrl.addr, align 8
  store i64 %new_capacity, ptr %new_capacity.addr, align 8
  %this1 = load ptr, ptr %this.addr, align 8
  store i64 8, ptr %kHalfWidth, align 8
  %old_capacity_ = getelementptr inbounds %"class.absl::container_internal::HashSetResizeHelper", ptr %this1, i32 0, i32 1
  %0 = load i64, ptr %old_capacity_, align 8
  %div = udiv i64 %0, 2
  store i64 %div, ptr %half_old_capacity, align 8
  %1 = load ptr, ptr %new_ctrl.addr, align 8
  %old_ctrl_ = getelementptr inbounds %"class.absl::container_internal::HashSetResizeHelper", ptr %this1, i32 0, i32 0
  %2 = load ptr, ptr %old_ctrl_, align 8
  %3 = load i64, ptr %half_old_capacity, align 8
  %add.ptr = getelementptr inbounds i8, ptr %2, i64 %3
  %add.ptr2 = getelementptr inbounds i8, ptr %add.ptr, i64 1
  call void @llvm.memcpy.p0.p0.i64(ptr align 1 %1, ptr align 1 %add.ptr2, i64 8, i1 false)
  %4 = load ptr, ptr %new_ctrl.addr, align 8
  %5 = load i64, ptr %half_old_capacity, align 8
  %arrayidx = getelementptr inbounds i8, ptr %4, i64 %5
  store i8 -128, ptr %arrayidx, align 1
  %6 = load ptr, ptr %new_ctrl.addr, align 8
  %old_capacity_3 = getelementptr inbounds %"class.absl::container_internal::HashSetResizeHelper", ptr %this1, i32 0, i32 1
  %7 = load i64, ptr %old_capacity_3, align 8
  %add.ptr4 = getelementptr inbounds i8, ptr %6, i64 %7
  %add.ptr5 = getelementptr inbounds i8, ptr %add.ptr4, i64 1
  call void @llvm.memset.p0.i64(ptr align 1 %add.ptr5, i8 -128, i64 8, i1 false)
  %8 = load ptr, ptr %new_ctrl.addr, align 8
  %add.ptr6 = getelementptr inbounds i8, ptr %8, i64 8
  call void @llvm.memset.p0.i64(ptr align 1 %add.ptr6, i8 -128, i64 8, i1 false)
  %9 = load ptr, ptr %new_ctrl.addr, align 8
  %10 = load i64, ptr %new_capacity.addr, align 8
  %add.ptr7 = getelementptr inbounds i8, ptr %9, i64 %10
  %add.ptr8 = getelementptr inbounds i8, ptr %add.ptr7, i64 8
  call void @llvm.memset.p0.i64(ptr align 1 %add.ptr8, i8 -128, i64 8, i1 false)
  %arraydecay = getelementptr inbounds [8 x i8], ptr %g, i64 0, i64 0
  %11 = load ptr, ptr %new_ctrl.addr, align 8
  call void @llvm.memcpy.p0.p0.i64(ptr align 1 %arraydecay, ptr align 1 %11, i64 8, i1 false)
  %12 = load ptr, ptr %new_ctrl.addr, align 8
  %13 = load i64, ptr %new_capacity.addr, align 8
  %add.ptr9 = getelementptr inbounds i8, ptr %12, i64 %13
  %add.ptr10 = getelementptr inbounds i8, ptr %add.ptr9, i64 1
  %arraydecay11 = getelementptr inbounds [8 x i8], ptr %g, i64 0, i64 0
  call void @llvm.memcpy.p0.p0.i64(ptr align 1 %add.ptr10, ptr align 1 %arraydecay11, i64 8, i1 false)
  %14 = load ptr, ptr %new_ctrl.addr, align 8
  %15 = load i64, ptr %new_capacity.addr, align 8
  %arrayidx12 = getelementptr inbounds i8, ptr %14, i64 %15
  store i8 -1, ptr %arrayidx12, align 1
  ret void
}

; Function Attrs: mustprogress nounwind uwtable
define linkonce_odr dso_local noundef i64 @_ZNK4absl18container_internal12CommonFields8capacityEv(ptr noundef nonnull align 8 dereferenceable(32) %this) #1 comdat align 2 {
entry:
  %this.addr = alloca ptr, align 8
  store ptr %this, ptr %this.addr, align 8
  %this1 = load ptr, ptr %this.addr, align 8
  %capacity_ = getelementptr inbounds %"class.absl::container_internal::CommonFields", ptr %this1, i32 0, i32 2
  %0 = load i64, ptr %capacity_, align 8
  ret i64 %0
}

; Function Attrs: mustprogress nounwind uwtable
define linkonce_odr dso_local noundef ptr @_ZNK4absl18container_internal12CommonFields7controlEv(ptr noundef nonnull align 8 dereferenceable(32) %this) #1 comdat align 2 {
entry:
  %this.addr = alloca ptr, align 8
  store ptr %this, ptr %this.addr, align 8
  %this1 = load ptr, ptr %this.addr, align 8
  %control_ = getelementptr inbounds %"class.absl::container_internal::CommonFields", ptr %this1, i32 0, i32 0
  %0 = load ptr, ptr %control_, align 8
  ret ptr %0
}

; Function Attrs: mustprogress uwtable
define dso_local void @_ZN4absl18container_internal19HashSetResizeHelper35GrowSizeIntoSingleGroupTransferableERNS0_12CommonFieldsEPvm(ptr noundef nonnull align 8 dereferenceable(17) %this, ptr noundef nonnull align 8 dereferenceable(32) %c, ptr noundef %old_slots, i64 noundef %slot_size) #0 align 2 {
entry:
  %this.addr = alloca ptr, align 8
  %c.addr = alloca ptr, align 8
  %old_slots.addr = alloca ptr, align 8
  %slot_size.addr = alloca i64, align 8
  store ptr %this, ptr %this.addr, align 8
  store ptr %c, ptr %c.addr, align 8
  store ptr %old_slots, ptr %old_slots.addr, align 8
  store i64 %slot_size, ptr %slot_size.addr, align 8
  %this1 = load ptr, ptr %this.addr, align 8
  %0 = load ptr, ptr %c.addr, align 8
  %call = call noundef ptr @_ZNK4absl18container_internal12CommonFields7controlEv(ptr noundef nonnull align 8 dereferenceable(32) %0)
  %1 = load ptr, ptr %c.addr, align 8
  %call2 = call noundef i64 @_ZNK4absl18container_internal12CommonFields8capacityEv(ptr noundef nonnull align 8 dereferenceable(32) %1)
  call void @_ZNK4absl18container_internal19HashSetResizeHelper38GrowIntoSingleGroupShuffleControlBytesEPNS0_6ctrl_tEm(ptr noundef nonnull align 8 dereferenceable(17) %this1, ptr noundef %call, i64 noundef %call2)
  %2 = load ptr, ptr %old_slots.addr, align 8
  %3 = load ptr, ptr %c.addr, align 8
  %call3 = call noundef ptr @_ZNK4absl18container_internal12CommonFields10slot_arrayEv(ptr noundef nonnull align 8 dereferenceable(32) %3)
  %4 = load i64, ptr %slot_size.addr, align 8
  call void @_ZNK4absl18container_internal19HashSetResizeHelper43GrowIntoSingleGroupShuffleTransferableSlotsEPvS2_m(ptr noundef nonnull align 8 dereferenceable(17) %this1, ptr noundef %2, ptr noundef %call3, i64 noundef %4)
  %5 = load ptr, ptr %c.addr, align 8
  %6 = load i64, ptr %slot_size.addr, align 8
  call void @_ZNK4absl18container_internal19HashSetResizeHelper27PoisonSingleGroupEmptySlotsERNS0_12CommonFieldsEm(ptr noundef nonnull align 8 dereferenceable(17) %this1, ptr noundef nonnull align 8 dereferenceable(32) %5, i64 noundef %6)
  ret void
}