; Function Attrs: mustprogress nofree norecurse nosync nounwind willreturn memory(readwrite, inaccessiblemem: none) uwtable
define dso_local void @_ZN4absl18container_internal19HashSetResizeHelper35GrowSizeIntoSingleGroupTransferableERNS0_12CommonFieldsEPvm(ptr noundef nonnull readonly align 8 captures(none) dereferenceable(17) %this, ptr noundef nonnull readonly align 8 captures(none) dereferenceable(32) %c, ptr noundef readonly captures(none) %old_slots, i64 noundef %slot_size) local_unnamed_addr #12 align 2 {
entry:
  %0 = load ptr, ptr %c, align 8
  %capacity_.i = getelementptr inbounds nuw i8, ptr %c, i64 16
  %1 = load i64, ptr %capacity_.i, align 8
  %old_capacity_.i = getelementptr inbounds nuw i8, ptr %this, i64 8
  %2 = load i64, ptr %old_capacity_.i, align 8
  %div12.i = lshr i64 %2, 1
  %3 = load ptr, ptr %this, align 8
  %add.ptr.i = getelementptr inbounds nuw i8, ptr %3, i64 %div12.i
  %add.ptr2.i = getelementptr inbounds nuw i8, ptr %add.ptr.i, i64 1
  %4 = load i64, ptr %add.ptr2.i, align 1
  store i64 %4, ptr %0, align 1
  %arrayidx.i = getelementptr inbounds nuw i8, ptr %0, i64 %div12.i
  store i8 -128, ptr %arrayidx.i, align 1
  %5 = load i64, ptr %old_capacity_.i, align 8
  %add.ptr4.i = getelementptr inbounds i8, ptr %0, i64 %5
  %add.ptr5.i = getelementptr inbounds nuw i8, ptr %add.ptr4.i, i64 1
  store i64 -9187201950435737472, ptr %add.ptr5.i, align 1
  %add.ptr6.i = getelementptr inbounds nuw i8, ptr %0, i64 8
  store i64 -9187201950435737472, ptr %add.ptr6.i, align 1
  %add.ptr7.i = getelementptr inbounds i8, ptr %0, i64 %1
  %add.ptr8.i = getelementptr inbounds nuw i8, ptr %add.ptr7.i, i64 8
  store i64 -9187201950435737472, ptr %add.ptr8.i, align 1
  %g.sroa.0.0.copyload.i = load i64, ptr %0, align 1
  %add.ptr10.i = getelementptr inbounds nuw i8, ptr %add.ptr7.i, i64 1
  store i64 %g.sroa.0.0.copyload.i, ptr %add.ptr10.i, align 1
  store i8 -1, ptr %add.ptr7.i, align 1
  %slots_.i = getelementptr inbounds nuw i8, ptr %c, i64 8
  %6 = load ptr, ptr %slots_.i, align 8
  %7 = load i64, ptr %old_capacity_.i, align 8
  %div11.i = lshr i64 %7, 1
  %add.i = add nuw i64 %div11.i, 1
  %mul.i.i = mul i64 %add.i, %slot_size
  %add.ptr.i.i = getelementptr inbounds i8, ptr %old_slots, i64 %mul.i.i
  %mul3.i = mul i64 %div11.i, %slot_size
  tail call void @llvm.memcpy.p0.p0.i64(ptr align 1 %6, ptr readonly align 1 %add.ptr.i.i, i64 %mul3.i, i1 false)
  %add.ptr.i13.i = getelementptr inbounds i8, ptr %6, i64 %mul.i.i
  tail call void @llvm.memcpy.p0.p0.i64(ptr align 1 %add.ptr.i13.i, ptr readonly align 1 %old_slots, i64 %mul.i.i, i1 false)
  ret void
}